target datalayout = "e-m:e-p270:32:32-p271:32:32-p272:64:64-i64:64-i128:128-f80:128-n8:16:32:64-S128"
target triple = "x86_64-pc-linux-gnu"

%struct.GetBitContext = type { ptr, ptr, i32, i32, i32 }
%struct.AVBufferRef = type { ptr, ptr, i64 }
%struct.H266RawExtensionData = type { ptr, ptr, i64 }

@.str.335 = private unnamed_addr constant [15 x i8] c"extension_data\00", align 1

; Function Attrs: alwaysinline nounwind willreturn memory(none) uwtable
define internal i32 @av_bswap32(i32 noundef %0) #5 {
  %2 = alloca i32, align 4
  store i32 %0, ptr %2, align 4, !tbaa !11
  %3 = load i32, ptr %2, align 4, !tbaa !11
  %4 = shl i32 %3, 8
  %5 = and i32 %4, 65280
  %6 = load i32, ptr %2, align 4, !tbaa !11
  %7 = lshr i32 %6, 8
  %8 = and i32 %7, 255
  %9 = or i32 %5, %8
  %10 = shl i32 %9, 16
  %11 = load i32, ptr %2, align 4, !tbaa !11
  %12 = lshr i32 %11, 16
  %13 = shl i32 %12, 8
  %14 = and i32 %13, 65280
  %15 = load i32, ptr %2, align 4, !tbaa !11
  %16 = lshr i32 %15, 16
  %17 = lshr i32 %16, 8
  %18 = and i32 %17, 255
  %19 = or i32 %14, %18
  %20 = or i32 %10, %19
  ret i32 %20
}

; Function Attrs: inlinehint nounwind uwtable
define internal i32 @get_bits_count(ptr noundef %0) #6 {
  %2 = alloca ptr, align 8
  store ptr %0, ptr %2, align 8, !tbaa !196
  %3 = load ptr, ptr %2, align 8, !tbaa !196
  %4 = getelementptr inbounds nuw %struct.GetBitContext, ptr %3, i32 0, i32 2
  %5 = load i32, ptr %4, align 8, !tbaa !202
  ret i32 %5
}

; Function Attrs: inlinehint nounwind uwtable
define internal i32 @show_bits(ptr noundef %0, i32 noundef %1) #6 {
  %3 = alloca ptr, align 8
  %4 = alloca i32, align 4
  %5 = alloca i32, align 4
  %6 = alloca i32, align 4
  %7 = alloca i32, align 4
  store ptr %0, ptr %3, align 8, !tbaa !196
  store i32 %1, ptr %4, align 4, !tbaa !11
  call void @llvm.lifetime.start.p0(i64 4, ptr %5) #11
  call void @llvm.lifetime.start.p0(i64 4, ptr %6) #11
  %8 = load ptr, ptr %3, align 8, !tbaa !196
  %9 = getelementptr inbounds nuw %struct.GetBitContext, ptr %8, i32 0, i32 2
  %10 = load i32, ptr %9, align 8, !tbaa !202
  store i32 %10, ptr %6, align 4, !tbaa !11
  call void @llvm.lifetime.start.p0(i64 4, ptr %7) #11
  %11 = load ptr, ptr %3, align 8, !tbaa !196
  %12 = getelementptr inbounds nuw %struct.GetBitContext, ptr %11, i32 0, i32 0
  %13 = load ptr, ptr %12, align 8, !tbaa !198
  %14 = load i32, ptr %6, align 4, !tbaa !11
  %15 = lshr i32 %14, 3
  %16 = zext i32 %15 to i64
  %17 = getelementptr inbounds nuw i8, ptr %13, i64 %16
  %18 = load i32, ptr %17, align 1, !tbaa !32
  %19 = call i32 @av_bswap32(i32 noundef %18) #13
  %20 = load i32, ptr %6, align 4, !tbaa !11
  %21 = and i32 %20, 7
  %22 = shl i32 %19, %21
  %23 = lshr i32 %22, 0
  store i32 %23, ptr %7, align 4, !tbaa !11
  %24 = load i32, ptr %7, align 4, !tbaa !11
  %25 = load i32, ptr %4, align 4, !tbaa !11
  %26 = sub nsw i32 32, %25
  %27 = lshr i32 %24, %26
  store i32 %27, ptr %5, align 4, !tbaa !11
  %28 = load i32, ptr %5, align 4, !tbaa !11
  call void @llvm.lifetime.end.p0(i64 4, ptr %7) #11
  call void @llvm.lifetime.end.p0(i64 4, ptr %6) #11
  call void @llvm.lifetime.end.p0(i64 4, ptr %5) #11
  ret i32 %28
}

; Function Attrs: inlinehint nounwind uwtable
define internal i32 @get_bits_left(ptr noundef %0) #6 {
  %2 = alloca ptr, align 8
  store ptr %0, ptr %2, align 8, !tbaa !196
  %3 = load ptr, ptr %2, align 8, !tbaa !196
  %4 = getelementptr inbounds nuw %struct.GetBitContext, ptr %3, i32 0, i32 3
  %5 = load i32, ptr %4, align 4, !tbaa !199
  %6 = load ptr, ptr %2, align 8, !tbaa !196
  %7 = call i32 @get_bits_count(ptr noundef %6)
  %8 = sub nsw i32 %5, %7
  ret i32 %8
}

; Function Attrs: inlinehint nounwind uwtable
define internal void @skip_bits(ptr noundef %0, i32 noundef %1) #6 {
  %3 = alloca ptr, align 8
  %4 = alloca i32, align 4
  %5 = alloca i32, align 4
  %6 = alloca i32, align 4
  store ptr %0, ptr %3, align 8, !tbaa !196
  store i32 %1, ptr %4, align 4, !tbaa !11
  call void @llvm.lifetime.start.p0(i64 4, ptr %5) #11
  %7 = load ptr, ptr %3, align 8, !tbaa !196
  %8 = getelementptr inbounds nuw %struct.GetBitContext, ptr %7, i32 0, i32 2
  %9 = load i32, ptr %8, align 8, !tbaa !202
  store i32 %9, ptr %5, align 4, !tbaa !11
  call void @llvm.lifetime.start.p0(i64 4, ptr %6) #11
  %10 = load ptr, ptr %3, align 8, !tbaa !196
  %11 = getelementptr inbounds nuw %struct.GetBitContext, ptr %10, i32 0, i32 4
  %12 = load i32, ptr %11, align 8, !tbaa !200
  store i32 %12, ptr %6, align 4, !tbaa !11
  %13 = load i32, ptr %6, align 4, !tbaa !11
  %14 = load i32, ptr %5, align 4, !tbaa !11
  %15 = load i32, ptr %4, align 4, !tbaa !11
  %16 = add i32 %14, %15
  %17 = icmp ugt i32 %13, %16
  br i1 %17, label %18, label %22

18:                                               ; preds = %2
  %19 = load i32, ptr %5, align 4, !tbaa !11
  %20 = load i32, ptr %4, align 4, !tbaa !11
  %21 = add i32 %19, %20
  br label %24

22:                                               ; preds = %2
  %23 = load i32, ptr %6, align 4, !tbaa !11
  br label %24

24:                                               ; preds = %22, %18
  %25 = phi i32 [ %21, %18 ], [ %23, %22 ]
  store i32 %25, ptr %5, align 4, !tbaa !11
  %26 = load i32, ptr %5, align 4, !tbaa !11
  %27 = load ptr, ptr %3, align 8, !tbaa !196
  %28 = getelementptr inbounds nuw %struct.GetBitContext, ptr %27, i32 0, i32 2
  store i32 %26, ptr %28, align 8, !tbaa !202
  call void @llvm.lifetime.end.p0(i64 4, ptr %6) #11
  call void @llvm.lifetime.end.p0(i64 4, ptr %5) #11
  ret void
}

; Function Attrs: nounwind uwtable
define internal i32 @cbs_h2645_read_more_rbsp_data(ptr noundef %0) #0 {
  %2 = alloca i32, align 4
  %3 = alloca ptr, align 8
  %4 = alloca i32, align 4
  %5 = alloca i32, align 4
  store ptr %0, ptr %3, align 8, !tbaa !196
  call void @llvm.lifetime.start.p0(i64 4, ptr %4) #11
  %6 = load ptr, ptr %3, align 8, !tbaa !196
  %7 = call i32 @get_bits_left(ptr noundef %6)
  store i32 %7, ptr %4, align 4, !tbaa !11
  %8 = load i32, ptr %4, align 4, !tbaa !11
  %9 = icmp sgt i32 %8, 8
  br i1 %9, label %10, label %11

10:                                               ; preds = %1
  store i32 1, ptr %2, align 4
  store i32 1, ptr %5, align 4
  br label %29

11:                                               ; preds = %1
  %12 = load i32, ptr %4, align 4, !tbaa !11
  %13 = icmp eq i32 %12, 0
  br i1 %13, label %14, label %15

14:                                               ; preds = %11
  store i32 0, ptr %2, align 4
  store i32 1, ptr %5, align 4
  br label %29

15:                                               ; preds = %11
  %16 = load ptr, ptr %3, align 8, !tbaa !196
  %17 = load i32, ptr %4, align 4, !tbaa !11
  %18 = call i32 @show_bits(ptr noundef %16, i32 noundef %17)
  %19 = zext i32 %18 to i64
  %20 = load i32, ptr %4, align 4, !tbaa !11
  %21 = sub nsw i32 %20, 1
  %22 = zext i32 %21 to i64
  %23 = shl i64 1, %22
  %24 = sub i64 %23, 1
  %25 = and i64 %19, %24
  %26 = icmp ne i64 %25, 0
  br i1 %26, label %27, label %28

27:                                               ; preds = %15
  store i32 1, ptr %2, align 4
  store i32 1, ptr %5, align 4
  br label %29

28:                                               ; preds = %15
  store i32 0, ptr %2, align 4
  store i32 1, ptr %5, align 4
  br label %29

29:                                               ; preds = %28, %27, %14, %10
  call void @llvm.lifetime.end.p0(i64 4, ptr %4) #11
  %30 = load i32, ptr %2, align 4
  ret i32 %30
}

; Function Attrs: nounwind uwtable
define internal i32 @cbs_h266_read_extension_data(ptr noundef %0, ptr noundef %1, ptr noundef %2) #0 {
  %4 = alloca i32, align 4
  %5 = alloca ptr, align 8
  %6 = alloca ptr, align 8
  %7 = alloca ptr, align 8
  %8 = alloca i32, align 4
  %9 = alloca i64, align 8
  %10 = alloca %struct.GetBitContext, align 8
  %11 = alloca i8, align 1
  %12 = alloca i32, align 4
  %13 = alloca i32, align 4
  store ptr %0, ptr %5, align 8, !tbaa !4
  store ptr %1, ptr %6, align 8, !tbaa !196
  store ptr %2, ptr %7, align 8, !tbaa !1352
  call void @llvm.lifetime.start.p0(i64 4, ptr %8) #11
  call void @llvm.lifetime.start.p0(i64 8, ptr %9) #11
  call void @llvm.lifetime.start.p0(i64 32, ptr %10) #11
  call void @llvm.lifetime.start.p0(i64 1, ptr %11) #11
  %14 = load ptr, ptr %6, align 8, !tbaa !196
  call void @llvm.memcpy.p0.p0.i64(ptr align 8 %10, ptr align 8 %14, i64 32, i1 false), !tbaa.struct !325
  store i64 0, ptr %9, align 8, !tbaa !40
  br label %15

15:                                               ; preds = %21, %3
  %16 = load ptr, ptr %6, align 8, !tbaa !196
  %17 = call i32 @cbs_h2645_read_more_rbsp_data(ptr noundef %16)
  %18 = icmp ne i32 %17, 0
  br i1 %18, label %19, label %24

19:                                               ; preds = %15
  %20 = load ptr, ptr %6, align 8, !tbaa !196
  call void @skip_bits(ptr noundef %20, i32 noundef 1)
  br label %21

21:                                               ; preds = %19
  %22 = load i64, ptr %9, align 8, !tbaa !40
  %23 = add i64 %22, 1
  store i64 %23, ptr %9, align 8, !tbaa !40
  br label %15, !llvm.loop !1354

24:                                               ; preds = %15
  %25 = load i64, ptr %9, align 8, !tbaa !40
  %26 = load ptr, ptr %7, align 8, !tbaa !1352
  %27 = getelementptr inbounds nuw %struct.H266RawExtensionData, ptr %26, i32 0, i32 2
  store i64 %25, ptr %27, align 8, !tbaa !1355
  %28 = load i64, ptr %9, align 8, !tbaa !40
  %29 = icmp ugt i64 %28, 0
  br i1 %29, label %30, label %104

30:                                               ; preds = %24
  %31 = load ptr, ptr %6, align 8, !tbaa !196
  call void @llvm.memcpy.p0.p0.i64(ptr align 8 %31, ptr align 8 %10, i64 32, i1 false), !tbaa.struct !325
  br label %32

32:                                               ; preds = %30
  %33 = load ptr, ptr %7, align 8, !tbaa !1352
  %34 = getelementptr inbounds nuw %struct.H266RawExtensionData, ptr %33, i32 0, i32 2
  %35 = load i64, ptr %34, align 8, !tbaa !1355
  %36 = add i64 %35, 7
  %37 = udiv i64 %36, 8
  %38 = add i64 %37, 64
  %39 = call ptr @av_buffer_allocz(i64 noundef %38)
  %40 = load ptr, ptr %7, align 8, !tbaa !1352
  %41 = getelementptr inbounds nuw %struct.H266RawExtensionData, ptr %40, i32 0, i32 1
  store ptr %39, ptr %41, align 8, !tbaa !1356
  %42 = load ptr, ptr %7, align 8, !tbaa !1352
  %43 = getelementptr inbounds nuw %struct.H266RawExtensionData, ptr %42, i32 0, i32 1
  %44 = load ptr, ptr %43, align 8, !tbaa !1356
  %45 = icmp ne ptr %44, null
  br i1 %45, label %47, label %46

46:                                               ; preds = %32
  store i32 -12, ptr %4, align 4
  store i32 1, ptr %12, align 4
  br label %105

47:                                               ; preds = %32
  %48 = load ptr, ptr %7, align 8, !tbaa !1352
  %49 = getelementptr inbounds nuw %struct.H266RawExtensionData, ptr %48, i32 0, i32 1
  %50 = load ptr, ptr %49, align 8, !tbaa !1356
  %51 = getelementptr inbounds nuw %struct.AVBufferRef, ptr %50, i32 0, i32 1
  %52 = load ptr, ptr %51, align 8, !tbaa !266
  %53 = load ptr, ptr %7, align 8, !tbaa !1352
  %54 = getelementptr inbounds nuw %struct.H266RawExtensionData, ptr %53, i32 0, i32 0
  store ptr %52, ptr %54, align 8, !tbaa !1357
  br label %55

55:                                               ; preds = %47
  br label %56

56:                                               ; preds = %55
  store i64 0, ptr %9, align 8, !tbaa !40
  br label %57

57:                                               ; preds = %100, %56
  %58 = load i64, ptr %9, align 8, !tbaa !40
  %59 = load ptr, ptr %7, align 8, !tbaa !1352
  %60 = getelementptr inbounds nuw %struct.H266RawExtensionData, ptr %59, i32 0, i32 2
  %61 = load i64, ptr %60, align 8, !tbaa !1355
  %62 = icmp ult i64 %58, %61
  br i1 %62, label %63, label %103

63:                                               ; preds = %57
  br label %64

64:                                               ; preds = %63
  call void @llvm.lifetime.start.p0(i64 4, ptr %13) #11
  br label %65

65:                                               ; preds = %64
  %66 = load ptr, ptr %5, align 8, !tbaa !4
  %67 = load ptr, ptr %6, align 8, !tbaa !196
  %68 = call i32 @ff_cbs_read_unsigned(ptr noundef %66, ptr noundef %67, i32 noundef 1, ptr noundef @.str.335, ptr noundef null, ptr noundef %13, i32 noundef 0, i32 noundef 1)
  store i32 %68, ptr %8, align 4, !tbaa !11
  %69 = load i32, ptr %8, align 4, !tbaa !11
  %70 = icmp slt i32 %69, 0
  br i1 %70, label %71, label %73

71:                                               ; preds = %65
  %72 = load i32, ptr %8, align 4, !tbaa !11
  store i32 %72, ptr %4, align 4
  store i32 1, ptr %12, align 4
  br label %78

73:                                               ; preds = %65
  br label %74

74:                                               ; preds = %73
  br label %75

75:                                               ; preds = %74
  %76 = load i32, ptr %13, align 4, !tbaa !11
  %77 = trunc i32 %76 to i8
  store i8 %77, ptr %11, align 1, !tbaa !32
  store i32 0, ptr %12, align 4
  br label %78

78:                                               ; preds = %75, %71
  call void @llvm.lifetime.end.p0(i64 4, ptr %13) #11
  %79 = load i32, ptr %12, align 4
  switch i32 %79, label %105 [
    i32 0, label %80
  ]

80:                                               ; preds = %78
  br label %81

81:                                               ; preds = %80
  br label %82

82:                                               ; preds = %81
  %83 = load i8, ptr %11, align 1, !tbaa !32
  %84 = zext i8 %83 to i32
  %85 = load i64, ptr %9, align 8, !tbaa !40
  %86 = urem i64 %85, 8
  %87 = sub i64 7, %86
  %88 = trunc i64 %87 to i32
  %89 = shl i32 %84, %88
  %90 = load ptr, ptr %7, align 8, !tbaa !1352
  %91 = getelementptr inbounds nuw %struct.H266RawExtensionData, ptr %90, i32 0, i32 0
  %92 = load ptr, ptr %91, align 8, !tbaa !1357
  %93 = load i64, ptr %9, align 8, !tbaa !40
  %94 = udiv i64 %93, 8
  %95 = getelementptr inbounds nuw i8, ptr %92, i64 %94
  %96 = load i8, ptr %95, align 1, !tbaa !32
  %97 = zext i8 %96 to i32
  %98 = or i32 %97, %89
  %99 = trunc i32 %98 to i8
  store i8 %99, ptr %95, align 1, !tbaa !32
  br label %100

100:                                              ; preds = %82
  %101 = load i64, ptr %9, align 8, !tbaa !40
  %102 = add i64 %101, 1
  store i64 %102, ptr %9, align 8, !tbaa !40
  br label %57, !llvm.loop !1358

103:                                              ; preds = %57
  br label %104

104:                                              ; preds = %103, %24
  store i32 0, ptr %4, align 4
  store i32 1, ptr %12, align 4
  br label %105

105:                                              ; preds = %104, %78, %46
  call void @llvm.lifetime.end.p0(i64 1, ptr %11) #11
  call void @llvm.lifetime.end.p0(i64 32, ptr %10) #11
  call void @llvm.lifetime.end.p0(i64 8, ptr %9) #11
  call void @llvm.lifetime.end.p0(i64 4, ptr %8) #11
  %106 = load i32, ptr %4, align 4
  ret i32 %106
}