; Function Attrs: nounwind uwtable
define internal fastcc range(i32 -2147483648, 1) i32 @cbs_h266_read_extension_data(ptr noundef %0, ptr noundef nonnull %1, ptr noundef captures(none) %2) unnamed_addr #0 {
  %4 = alloca %struct.GetBitContext, align 8
  %5 = alloca i32, align 4
  call void @llvm.lifetime.start.p0(i64 32, ptr nonnull %4)
  call void @llvm.memcpy.p0.p0.i64(ptr noundef nonnull align 8 dereferenceable(32) %4, ptr noundef nonnull align 8 dereferenceable(32) %1, i64 32, i1 false), !tbaa.struct !829
  %6 = getelementptr i8, ptr %1, i64 16
  %7 = getelementptr i8, ptr %1, i64 20
  %.val7.i = load i32, ptr %7, align 4, !tbaa !57
  %.promoted = load i32, ptr %6, align 8, !tbaa !60
  %8 = getelementptr inbounds nuw i8, ptr %1, i64 24
  br label %9

9:                                                ; preds = %cbs_h2645_read_more_rbsp_data.exit.thread36, %3
  %10 = phi i32 [ %.promoted, %3 ], [ %31, %cbs_h2645_read_more_rbsp_data.exit.thread36 ]
  %.026 = phi i64 [ 0, %3 ], [ %32, %cbs_h2645_read_more_rbsp_data.exit.thread36 ]
  %11 = sub nsw i32 %.val7.i, %10
  %12 = icmp sgt i32 %11, 8
  br i1 %12, label %cbs_h2645_read_more_rbsp_data.exit.thread36, label %13

13:                                               ; preds = %9
  %14 = icmp eq i32 %.val7.i, %10
  br i1 %14, label %cbs_h2645_read_more_rbsp_data.exit.thread, label %cbs_h2645_read_more_rbsp_data.exit

cbs_h2645_read_more_rbsp_data.exit:               ; preds = %13
  %.val8.i = load ptr, ptr %1, align 8, !tbaa !56
  %15 = lshr i32 %10, 3
  %16 = zext nneg i32 %15 to i64
  %17 = getelementptr inbounds nuw i8, ptr %.val8.i, i64 %16
  %18 = load i32, ptr %17, align 1, !tbaa !25
  %19 = tail call i32 @llvm.bswap.i32(i32 %18)
  %20 = and i32 %10, 7
  %21 = shl i32 %19, %20
  %22 = sub nsw i32 32, %11
  %23 = lshr i32 %21, %22
  %24 = zext nneg i32 %23 to i64
  %25 = add nsw i32 %11, -1
  %26 = zext nneg i32 %25 to i64
  %notmask.i = shl nsw i64 -1, %26
  %27 = xor i64 %notmask.i, -1
  %28 = and i64 %24, %27
  %.not.i.not = icmp eq i64 %28, 0
  br i1 %.not.i.not, label %cbs_h2645_read_more_rbsp_data.exit.thread, label %cbs_h2645_read_more_rbsp_data.exit.thread36

cbs_h2645_read_more_rbsp_data.exit.thread36:      ; preds = %9, %cbs_h2645_read_more_rbsp_data.exit
  %29 = load i32, ptr %8, align 8, !tbaa !58
  %30 = add i32 %10, 1
  %31 = tail call i32 @llvm.umin.i32(i32 %29, i32 %30)
  store i32 %31, ptr %6, align 8, !tbaa !60
  %32 = add i64 %.026, 1
  br label %9, !llvm.loop !1448

cbs_h2645_read_more_rbsp_data.exit.thread:        ; preds = %13, %cbs_h2645_read_more_rbsp_data.exit
  %33 = getelementptr inbounds nuw i8, ptr %2, i64 16
  store i64 %.026, ptr %33, align 8, !tbaa !647
  %.not32 = icmp eq i64 %.026, 0
  br i1 %.not32, label %.loopexit, label %34

34:                                               ; preds = %cbs_h2645_read_more_rbsp_data.exit.thread
  call void @llvm.memcpy.p0.p0.i64(ptr noundef nonnull align 8 dereferenceable(32) %1, ptr noundef nonnull align 8 dereferenceable(32) %4, i64 32, i1 false), !tbaa.struct !829
  %35 = load i64, ptr %33, align 8, !tbaa !647
  %36 = add i64 %35, 7
  %37 = lshr i64 %36, 3
  %38 = add nuw nsw i64 %37, 64
  %39 = tail call ptr @av_buffer_allocz(i64 noundef %38) #11
  %40 = getelementptr inbounds nuw i8, ptr %2, i64 8
  store ptr %39, ptr %40, align 8, !tbaa !1449
  %.not33 = icmp eq ptr %39, null
  br i1 %.not33, label %.loopexit, label %41

41:                                               ; preds = %34
  %42 = getelementptr inbounds nuw i8, ptr %39, i64 8
  %43 = load ptr, ptr %42, align 8, !tbaa !136
  store ptr %43, ptr %2, align 8, !tbaa !649
  %44 = load i64, ptr %33, align 8, !tbaa !647
  %.not = icmp eq i64 %44, 0
  br i1 %.not, label %.loopexit, label %.lr.ph

.lr.ph:                                           ; preds = %41, %48
  %.12739 = phi i64 [ %59, %48 ], [ 0, %41 ]
  call void @llvm.lifetime.start.p0(i64 4, ptr nonnull %5) #11
  %45 = call i32 @ff_cbs_read_unsigned(ptr noundef %0, ptr noundef nonnull %1, i32 noundef 1, ptr noundef nonnull @.str.335, ptr noundef null, ptr noundef nonnull %5, i32 noundef 0, i32 noundef 1) #11
  %46 = icmp sgt i32 %45, -1
  %47 = load i32, ptr %5, align 4
  call void @llvm.lifetime.end.p0(i64 4, ptr nonnull %5) #11
  br i1 %46, label %48, label %.loopexit

48:                                               ; preds = %.lr.ph
  %49 = trunc i32 %47 to i8
  %50 = trunc i64 %.12739 to i8
  %51 = and i8 %50, 7
  %52 = xor i8 %51, 7
  %53 = shl i8 %49, %52
  %54 = load ptr, ptr %2, align 8, !tbaa !649
  %55 = lshr i64 %.12739, 3
  %56 = getelementptr inbounds nuw i8, ptr %54, i64 %55
  %57 = load i8, ptr %56, align 1, !tbaa !25
  %58 = or i8 %57, %53
  store i8 %58, ptr %56, align 1, !tbaa !25
  %59 = add nuw i64 %.12739, 1
  %60 = load i64, ptr %33, align 8, !tbaa !647
  %61 = icmp ult i64 %59, %60
  br i1 %61, label %.lr.ph, label %.loopexit, !llvm.loop !1450

.loopexit:                                        ; preds = %.lr.ph, %48, %41, %cbs_h2645_read_more_rbsp_data.exit.thread, %34
  %.028 = phi i32 [ -12, %34 ], [ 0, %cbs_h2645_read_more_rbsp_data.exit.thread ], [ 0, %41 ], [ %45, %.lr.ph ], [ 0, %48 ]
  call void @llvm.lifetime.end.p0(i64 32, ptr nonnull %4)
  ret i32 %.028
}